{
    global:
        _Z14getScaledLevelv; _Z31GameManager_GetFieldEncountDataiP10MethodInfo; _Z13string_formatIJEENSt7__cxx1112basic_stringIcSt11char_traitsIcESaIcEEERKS5_DpT_; _Z15AssetLogEnqueuePN6System11Collections7Generic14Queue_String_oEPNS_6StringEP10MethodInfo; _ZNSt7__cxx1112basic_stringIcSt11char_traitsIcESaIcEE10_M_disposeEv; _Z24FormAdd_InitialSpec_ctorPN3Pml8PokePara13InitialSpec_oEPN3Dpr8EvScript15EvDataManager_oE; _Z10ADD_ReturnP10MethodInfo; _Z12ADD_JumpKickP10MethodInfo; _Z13HandlerReturnPPN3Dpr6Battle5Logic30EventFactor_EventHandlerArgs_oEhP10MethodInfo; _Z15ADD_FrustrationP10MethodInfo; _Z15HandlerJumpKickPPN3Dpr6Battle5Logic30EventFactor_EventHandlerArgs_oEhP10MethodInfo; _Z18HandlerFrustrationPPN3Dpr6Battle5Logic30EventFactor_EventHandlerArgs_oEhP10MethodInfo; _Z20SetMoveFunctionTablePN6System5ArrayIN3Dpr6Battle5Logic7Handler26Waza_GET_FUNC_TABLE_ELEM_oEEEPjiPFvvE; _Z21Waza_system_array_newPvj; _Z22CreateMoveEventHandlertPFvvE; _Z14socket_log_fmtIJEEvRKNSt7__cxx1112basic_stringIcSt11char_traitsIcESaIcEEEDpT_; _Z14socket_log_fmtIJhEEvRKNSt7__cxx1112basic_stringIcSt11char_traitsIcESaIcEEEDpT_; _Z14socket_log_fmtIJMN3Dpr6Battle5Logic15BTL_POKEPARAM_oEFbhP10MethodInfoEEEvRKNSt7__cxx1112basic_stringIcSt11char_traitsIcESaIcEEEDpT_; _Z14socket_log_fmtIJMN3Dpr6Battle5Logic15BTL_POKEPARAM_oEFtP10MethodInfoEEEvRKNSt7__cxx1112basic_stringIcSt11char_traitsIcESaIcEEEDpT_; _Z14socket_log_fmtIJPN3Dpr6Battle5Logic15BTL_POKEPARAM_oEEEvRKNSt7__cxx1112basic_stringIcSt11char_traitsIcESaIcEEEDpT_; _Z20CONFRONT_REC_IsMatchPN3Dpr6Battle5Logic15BTL_POKEPARAM_oEhS3_; _ZNSt7__cxx1112basic_stringIcSt11char_traitsIcESaIcEE10_M_disposeEv; _Z14socket_log_fmtIJbEEvRKNSt7__cxx1112basic_stringIcSt11char_traitsIcESaIcEEEDpT_; _Z14socket_log_fmtIJEEvRKNSt7__cxx1112basic_stringIcSt11char_traitsIcESaIcEEEDpT_; _Z14socket_log_fmtIJiEEvRKNSt7__cxx1112basic_stringIcSt11char_traitsIcESaIcEEEDpT_; _Z14socket_log_fmtIJmEEvRKNSt7__cxx1112basic_stringIcSt11char_traitsIcESaIcEEEDpT_; _Z14socket_log_fmtIJPFbbP10MethodInfoEEEvRKNSt7__cxx1112basic_stringIcSt11char_traitsIcESaIcEEEDpT_; _Z14VerifySaveDataP17System_Byte_arrayP10MethodInfo; _Z19importZukanSaveDataP21PlayerWork_SaveData_oP17System_Byte_array; _Z21importTrainerSaveDataP21PlayerWork_SaveData_oP17System_Byte_array; _Z30PlayerWork_CustomLoadOperationP10PlayerWorkP10MethodInfo; _Z35PlayerWork_CustomLoadAsyncOperationP10PlayerWorkP10MethodInfo; _Z8segfaultv; _Z9LoadBytesP10PlayerWorkP17System_Byte_arrayP21PlayerWork_SaveData_oP10MethodInfo; _ZN10PlayerWork24CustomLoadAsyncOperationEP10MethodInfo; _ZNSt7__cxx1112basic_stringIcSt11char_traitsIcESaIcEE10_M_disposeEv; _Z17TrainerWork_Resetv; _Z22TrainerWork_GetWinFlagi; _Z22TrainerWork_SetWinFlagi; _Z24TrainerWork_ResetWinFlagi; _Z29TrainerWork_GetBattleSearcheri; _Z29TrainerWork_SetBattleSaercheri; _Z31TrainerWork_ReSetBattleSaercheri; _Z34TrainerWork_AllResetBattleSaercherv; _Z11DebugLogCtxP12Il2CppObjectPvP10MethodInfo; _Z13DebugLogErrorP12Il2CppObjectP10MethodInfo; _Z14socket_log_fmtIJEEvRKNSt7__cxx1112basic_stringIcSt11char_traitsIcESaIcEEEDpT_; _Z14socket_log_fmtIJPcEEvRKNSt7__cxx1112basic_stringIcSt11char_traitsIcESaIcEEEDpT_; _Z15DebugLogWarningP12Il2CppObjectP10MethodInfo; _Z16DebugLogErrorCtxP12Il2CppObjectPvP10MethodInfo; _Z17DebugLogExceptionP18System_Exception_oP10MethodInfo; _Z18DebugLogWarningCtxP12Il2CppObjectPvP10MethodInfo; _Z20DebugLogExceptionCtxP18System_Exception_oPvP10MethodInfo; _Z8DebugLogP12Il2CppObjectP10MethodInfo; _ZNSt7__cxx1112basic_stringIcSt11char_traitsIcESaIcEE10_M_disposeEv; _Z14patchFieldWazaPN3Dpr2UI32PokemonWindow_DisplayClass25_0_oEPNS0_23ContextMenuItem_Param_oEP10MethodInfo; _Z14socket_log_fmtIJEEvRKNSt7__cxx1112basic_stringIcSt11char_traitsIcESaIcEEEDpT_; _Z14socket_log_fmtIJiEEvRKNSt7__cxx1112basic_stringIcSt11char_traitsIcESaIcEEEDpT_; _Z14socket_log_fmtIJM31System_Action_WazaNo__WazaNo__oFvPvP10MethodInfoS3_EEEvRKNSt7__cxx1112basic_stringIcSt11char_traitsIcESaIcEEEDpT_; _Z14socket_log_fmtIJMN3Dpr2UI11UIManager_oEFPv10UIWindowIDP10MethodInfoEEEvRKNSt7__cxx1112basic_stringIcSt11char_traitsIcESaIcEEEDpT_; _Z14socket_log_fmtIJMN3Dpr2UI14UIWazaManage_oEFvNS1_20UIWazaManage_Param_oEP10MethodInfoEEEvRKNSt7__cxx1112basic_stringIcSt11char_traitsIcESaIcEEEDpT_; _Z14socket_log_fmtIJMN3Dpr2UI23ContextMenuItem_Param_oEFvvEEEvRKNSt7__cxx1112basic_stringIcSt11char_traitsIcESaIcEEEDpT_; _Z14socket_log_fmtIJMN3Dpr8EvScript34EvDataManager_DisplayClass1541_0_oEFvP10MethodInfoEEEvRKNSt7__cxx1112basic_stringIcSt11char_traitsIcESaIcEEEDpT_; _Z14socket_log_fmtIJMN3Pml8PokePara9CoreParamEFiiP10MethodInfoEEEvRKNSt7__cxx1112basic_stringIcSt11char_traitsIcESaIcEEEDpT_; _Z14socket_log_fmtIJP10MethodInfoEEvRKNSt7__cxx1112basic_stringIcSt11char_traitsIcESaIcEEEDpT_; _Z14socket_log_fmtIJP31System_Action_WazaNo__WazaNo__oEEvRKNSt7__cxx1112basic_stringIcSt11char_traitsIcESaIcEEEDpT_; _Z14socket_log_fmtIJPFbPN3Dpr2UI24SoftwareKeyboard_Param_oEP76System_Func_string__SoftwareKeyboard_ErrorState__ValueTuple_bool__string___oP46UnityEngine_Events_UnityAction_bool__string__oP10MethodInfoEEEvRKNSt7__cxx1112basic_stringIcSt11char_traitsIcESaIcEEEDpT_; _Z14socket_log_fmtIJPFPN3Dpr8EvScript15EvDataManager_oEP10MethodInfoEEEvRKNSt7__cxx1112basic_stringIcSt11char_traitsIcESaIcEEEDpT_; _Z14socket_log_fmtIJPFPvP10MethodInfoEEEvRKNSt7__cxx1112basic_stringIcSt11char_traitsIcESaIcEEEDpT_; _Z14socket_log_fmtIJPN3Dpr2UI11UIManager_oEEEvRKNSt7__cxx1112basic_stringIcSt11char_traitsIcESaIcEEEDpT_; _Z14socket_log_fmtIJPN3Dpr2UI14UIWazaManage_oEEEvRKNSt7__cxx1112basic_stringIcSt11char_traitsIcESaIcEEEDpT_; _Z14socket_log_fmtIJPN3Dpr2UI20UIWazaManage_Param_oEEEvRKNSt7__cxx1112basic_stringIcSt11char_traitsIcESaIcEEEDpT_; _Z14socket_log_fmtIJPN3Dpr2UI32PokemonWindow_DisplayClass25_0_oEEEvRKNSt7__cxx1112basic_stringIcSt11char_traitsIcESaIcEEEDpT_; _Z14socket_log_fmtIJPN3Dpr8EvScript15EvDataManager_oEEEvRKNSt7__cxx1112basic_stringIcSt11char_traitsIcESaIcEEEDpT_; _Z14socket_log_fmtIJPN3Dpr8EvScript33EvDataManager_DisplayClass772_0_oEEEvRKNSt7__cxx1112basic_stringIcSt11char_traitsIcESaIcEEEDpT_; _Z14socket_log_fmtIJPN3Dpr8EvScript34EvDataManager_DisplayClass1541_0_oEEEvRKNSt7__cxx1112basic_stringIcSt11char_traitsIcESaIcEEEDpT_; _Z14socket_log_fmtIJPN3Pml8PokePara14PokemonParam_oEEEvRKNSt7__cxx1112basic_stringIcSt11char_traitsIcESaIcEEEDpT_; _Z14socket_log_fmtIJPN6System6StringEEEvRKNSt7__cxx1112basic_stringIcSt11char_traitsIcESaIcEEEDpT_; _Z14socket_log_fmtIJPP10MethodInfoEEvRKNSt7__cxx1112basic_stringIcSt11char_traitsIcESaIcEEEDpT_; _Z14socket_log_fmtIJPPvEEvRKNSt7__cxx1112basic_stringIcSt11char_traitsIcESaIcEEEDpT_; _Z14socket_log_fmtIJPvEEvRKNSt7__cxx1112basic_stringIcSt11char_traitsIcESaIcEEEDpT_; _Z16patchContextMenuPvPN6System11Collections7Generic28List_ContextMenuItem_Param_oE; _Z16patchPokemonSwapPN3Dpr2UI32PokemonWindow_DisplayClass25_0_oEP10MethodInfo; _Z17patchContextMenu2PN6System11Collections7Generic28List_ContextMenuItem_Param_oEPN3Dpr2UI23ContextMenuItem_Param_oEPNS5_32PokemonWindow_DisplayClass25_0_oE; _Z18IsPushButton_PatchPN3Dpr2UI10UIWindow_oEibP10MethodInfo; _Z38DisplayClass772_0_EvCmdNameInPoke_b__1PN3Dpr8EvScript33EvDataManager_DisplayClass772_0_oEbPN6System6StringEP10MethodInfo; _Z39EvCmdCallWazaOshieUi_b__0_getMethodInfov; _Z39EvDataManager_EvCmdCallWazaOshieUi_b__0PN3Dpr8EvScript34EvDataManager_DisplayClass1541_0_oEiiP10MethodInfo; _Z48EvCmdCallWazaOmoidashiUi_b__1539_0_getMethodInfov; _Z48EvDataManager_EvCmdCallWazaOmoidashiUi_b__1539_0PN3Dpr8EvScript15EvDataManager_oEiiP10MethodInfo; _Z52EvDataManager_EvCmdCallWazaOmoidashiUi_b__1539_0OrigPN3Dpr8EvScript15EvDataManager_oEiiP10MethodInfo; _Z9nameRaterPN3Dpr2UI32PokemonWindow_DisplayClass25_0_oEPNS0_23ContextMenuItem_Param_oEP10MethodInfo; _ZNSt7__cxx1112basic_stringIcSt11char_traitsIcESaIcEE10_M_disposeEv; _Z13string_formatIJEENSt7__cxx1112basic_stringIcSt11char_traitsIcESaIcEEERKS5_DpT_; _Z27BATTLE_SETUP_Wild_DBIncensePN3Dpr6Battle5Logic20BATTLE_SETUP_PARAM_oEPN3Pml11PokeParty_oES6_iPNS1_21BTL_FIELD_SITUATION_oEiP10MethodInfo; _Z27setup_alone_double_multi_04P29Dpr_Battle_Logic_MainModule_oPiP10MethodInfo; _ZNSt7__cxx1112basic_stringIcSt11char_traitsIcESaIcEE10_M_disposeEv; _Z14IncBattleCountPN3Dpr6Battle5Logic21ServerCommandPutter_oEhP10MethodInfo; _Z7bc_initPN3Dpr6Battle5Logic15BattleCounter_oEPNS1_10MainModuleEP10MethodInfo; _Z7getRnd1i; _Z34AddList_ShopBoutiqueItemItem_ParamPN6System11Collections7Generic33List_ShopBoutiqueItemItem_Param_oEi; _Z49Dpr_UI_ShopBoutiqueChange_SetupBoutiqueItemParamsPN6System11Collections7Generic33List_ShopBoutiqueItemItem_Param_oEP10MethodInfo; _Z11getMaxLevelv; _Z45Dpr_Battle_Logic_Exp_getexp_calc_adjust_leveljttP10MethodInfo; _Z12GetZukanFlagPN6System5ArrayIbEEj; _Z12SetZukanFlagPN6System5ArrayIbEEjb; _Z14GetZukanStatusPN6DPData12ZUKAN_WORK_oEj; _Z14SetZukanStatusPN6DPData12ZUKAN_WORK_oEji; _Z15ZukanWork_IsSeejP10MethodInfo; _Z16ZukanWork_IsGet1jP10MethodInfo; _Z16ZukanWork_IsGet2jhibP10MethodInfo; _Z17ZukanWork_IsUwasajP10MethodInfo; _Z17ZukanWork_SetPokejihibP10MethodInfo; _Z18ZukanWork_GetCountbP10MethodInfo; _Z18ZukanWork_SeeCountbP10MethodInfo; _Z19ZukanWork_GetStatusjP10MethodInfo; _Z21DescText_SetupMessageP15Dpr_UI_UIText_oPN6System6StringEiPN3Dpr2UI11ZukanInfo_oE; _Z23ZukanWork_GetSinouCountbP10MethodInfo; _Z23ZukanWork_SeeSinouCountbP10MethodInfo; _Z14socket_log_fmtIJbEEvRKNSt7__cxx1112basic_stringIcSt11char_traitsIcESaIcEEEDpT_; _Z14socket_log_fmtIJhEEvRKNSt7__cxx1112basic_stringIcSt11char_traitsIcESaIcEEEDpT_; _Z14socket_log_fmtIJiEEvRKNSt7__cxx1112basic_stringIcSt11char_traitsIcESaIcEEEDpT_; _Z14socket_log_fmtIJPN11XLSXContent11PokemonInfo14SheetCatalog_oEEEvRKNSt7__cxx1112basic_stringIcSt11char_traitsIcESaIcEEEDpT_; _Z21CoreParam_GetRareTypePN3Pml8PokePara9CoreParamE; _Z29DataManager_GetPokemonCatalogiihb; _ZNSt7__cxx1112basic_stringIcSt11char_traitsIcESaIcEE10_M_disposeEv; _Z14socket_log_fmtIJEEvRKNSt7__cxx1112basic_stringIcSt11char_traitsIcESaIcEEEDpT_; _Z16WAZADATA_GetTypeiPN3Dpr6Battle5Logic15BTL_POKEPARAM_oE; _Z22WazaDataSystem_GetTypeiPN3Pml8PokePara9CoreParamE; _Z30WazaManageSubWazaPanel_GetTypeiP10MethodInfo; _Z37WazaManagePokemonStausPanel_GetWazaNoPN3Pml8PokePara9CoreParamEhP10MethodInfo; _ZNSt7__cxx1112basic_stringIcSt11char_traitsIcESaIcEE10_M_disposeEv; _Z13displayPower1P18BoxStatusPanelUI_oP10MethodInfo; _Z13displayPower2P18BoxStatusPanelUI_oP10MethodInfo; _Z19displaySummaryPowerP15StatusPanelUI_oP10MethodInfo; _Z38Dpr_UI_BoxStatusPanel_GetJudgeTextCodeP23Dpr_UI_BoxStatusPanel_oPN3Pml8PokePara9CoreParamEiP10MethodInfo; _Z15BadgeWork_IsGetiP10MethodInfo; _Z21GetMaxFollowPokeLevelP29Dpr_Battle_Logic_MainModule_oP10MethodInfo; _Z65Dpr_Battle_Logic_Section_WazaExec_CheckFail_1st_checkSabotageTypeP49Dpr_Battle_Logic_Section_WazaExec_CheckFail_1st_oPN3Dpr6Battle5Logic15BTL_POKEPARAM_oEP10MethodInfo; _Z14socket_log_fmtIJEEvRKNSt7__cxx1112basic_stringIcSt11char_traitsIcESaIcEEEDpT_; _Z14toNarrowStringPN6System6StringE; _Z14toNarrowStringPtm; _Z42Lumi_AssetManager_AppendAssetBundleRequestPN6System6StringEbPN10SmartPoint14AssetAssistant22RequestEventCallback_oEPNS_5ArrayIS0_EEP10MethodInfo; _Z49Lumi_AssetRequestOperation_get_assetBundleRequestPN10SmartPoint14AssetAssistant23AssetRequestOperation_oEP10MethodInfo; _Z7GetDataPN6System6StringE; _ZNSt7__cxx1112basic_stringIcSt11char_traitsIcESaIcEE10_M_disposeEv; _Z11GetCatalogsPN3Dpr2UI11ZukanInfo_oEiibP10MethodInfo; _Z13string_formatIJiEENSt7__cxx1112basic_stringIcSt11char_traitsIcESaIcEEERKS5_DpT_; _Z14socket_log_fmtIJiEEvRKNSt7__cxx1112basic_stringIcSt11char_traitsIcESaIcEEEDpT_; _ZNSt7__cxx1112basic_stringIcSt11char_traitsIcESaIcEE10_M_disposeEv; _Z24CheckUnbreakablePokeItemttP10MethodInfo; _Z24DecideFormNoFromHoldItemijPtP10MethodInfo; _Z17BTL_SETUP_TrainerPN3Dpr6Battle5Logic20BATTLE_SETUP_PARAM_oEPN3Pml11PokeParty_oEiPNS1_21BTL_FIELD_SITUATION_oEiP10MethodInfo; _Z14socket_log_fmtIJP10PlayerWorkEEvRKNSt7__cxx1112basic_stringIcSt11char_traitsIcESaIcEEEDpT_; _Z14socket_log_fmtIJPvEEvRKNSt7__cxx1112basic_stringIcSt11char_traitsIcESaIcEEEDpT_; _Z43PlayerWork_CustomSaveAsyncOperation_NewHookP10PlayerWorkPP17System_Byte_arrayP10MethodInfo; _Z43PlayerWork_CustomSaveAsyncOperation_RerouteP10PlayerWorkP10MethodInfo; _ZNSt7__cxx1112basic_stringIcSt11char_traitsIcESaIcEE10_M_disposeEv; _Z10onSelectedPN3Dpr2UI23UIBag_Displayclass144_oEiP10MethodInfo; _Z14socket_log_fmtIJEEvRKNSt7__cxx1112basic_stringIcSt11char_traitsIcESaIcEEEDpT_; _Z14socket_log_fmtIJiEEvRKNSt7__cxx1112basic_stringIcSt11char_traitsIcESaIcEEEDpT_; _Z14socket_log_fmtIJP10MethodInfoEEvRKNSt7__cxx1112basic_stringIcSt11char_traitsIcESaIcEEEDpT_; _Z14socket_log_fmtIJPN3Dpr2UI23UIBag_Displayclass144_oEEEvRKNSt7__cxx1112basic_stringIcSt11char_traitsIcESaIcEEEDpT_; _Z14socket_log_fmtIJPN3Dpr2UI7UIBag_oEEEvRKNSt7__cxx1112basic_stringIcSt11char_traitsIcESaIcEEEDpT_; _Z14socket_log_fmtIJPvEEvRKNSt7__cxx1112basic_stringIcSt11char_traitsIcESaIcEEEDpT_; _Z18UseDualSlotIncensePN3Dpr2UI11UIManager_oEPNS0_20UIBag_Displayclass_oE; _Z25PlayerWork_set_DoubleSlotPN6System5ArrayI8MonsLv_oEE; _Z25UIManager_UseDSPlayerItemPN3Dpr2UI11UIManager_oEPNS0_20UIBag_Displayclass_oE; _Z33getFormChangeOnSelectedMethodInfov; _Z39Incense_GameManager_GetFieldEncountDataiP10MethodInfo; _ZNSt7__cxx1112basic_stringIcSt11char_traitsIcESaIcEE10_M_disposeEv; _Z18HoneyWork_GetLeveliiP10MethodInfo; _Z19HoneyWork_GetMonsNoiiP10MethodInfo; _Z12FUN_00047b1cv; _Z12LoadFromFilePN6System6StringEP10MethodInfo; _Z14socket_log_fmtIJEEvRKNSt7__cxx1112basic_stringIcSt11char_traitsIcESaIcEEEDpT_; _Z14socket_log_fmtIJhEEvRKNSt7__cxx1112basic_stringIcSt11char_traitsIcESaIcEEEDpT_; _Z14socket_log_fmtIJiEEvRKNSt7__cxx1112basic_stringIcSt11char_traitsIcESaIcEEEDpT_; _Z14socket_log_fmtIJmEEvRKNSt7__cxx1112basic_stringIcSt11char_traitsIcESaIcEEEDpT_; _Z14socket_log_fmtIJMN3Pml11PokeParty_oEFvPS1_P10MethodInfoEEEvRKNSt7__cxx1112basic_stringIcSt11char_traitsIcESaIcEEEDpT_; _Z14socket_log_fmtIJPFvPN3Dpr6Battle5Logic20BATTLE_SETUP_PARAM_oEiiP10MethodInfoEEEvRKNSt7__cxx1112basic_stringIcSt11char_traitsIcESaIcEEEDpT_; _Z14socket_log_fmtIJPFvPN3Dpr6Battle5Logic20BATTLE_SETUP_PARAM_oEPN3Pml11PokeParty_oES7_iPNS2_21BTL_FIELD_SITUATION_oEiP10MethodInfoEEEvRKNSt7__cxx1112basic_stringIcSt11char_traitsIcESaIcEEEDpT_; _Z14socket_log_fmtIJPN3Dpr6Battle5Logic14RaidBossDesc_oEEEvRKNSt7__cxx1112basic_stringIcSt11char_traitsIcESaIcEEEDpT_; _Z14socket_log_fmtIJPN3Pml11PokeParty_oEEEvRKNSt7__cxx1112basic_stringIcSt11char_traitsIcESaIcEEEDpT_; _Z17BATTLE_SETUP_WildPN3Dpr6Battle5Logic20BATTLE_SETUP_PARAM_oEPN3Pml11PokeParty_oES6_iPNS1_21BTL_FIELD_SITUATION_oEiP10MethodInfo; _Z18expandPokePos_raidPN3Dpr6Battle5Logic11ExPokePos_oEPNS1_24ExPokePos_ExpandResult_oEhP10MethodInfo; _Z18setSubProcForSetupPN3Dpr6Battle5Logic12MainModule_oEPNS1_20BATTLE_SETUP_PARAM_oEP10MethodInfo; _Z19setup_raid_srcPartyPN3Dpr6Battle5Logic12MainModule_oEP10MethodInfo; _Z20GetClientCoverPosNumihiP10MethodInfo; _Z22setSrcPartyToBattleEnvPN3Dpr6Battle5Logic12MainModule_oEPNS1_11BattleEnv_oEhbP10MethodInfo; _Z23setup_raid_trainerParamPN3Dpr6Battle5Logic12MainModule_oEP10MethodInfo; _Z28BATTLE_SETUP_WildForceDoublePN3Dpr6Battle5Logic20BATTLE_SETUP_PARAM_oEPN3Pml11PokeParty_oES6_iPNS1_21BTL_FIELD_SITUATION_oEiP10MethodInfo; _ZNSt7__cxx1112basic_stringIcSt11char_traitsIcESaIcEE10_M_disposeEv; _Z14socket_log_fmtIJEEvRKNSt7__cxx1112basic_stringIcSt11char_traitsIcESaIcEEEDpT_; _Z14socket_log_fmtIJiEEvRKNSt7__cxx1112basic_stringIcSt11char_traitsIcESaIcEEEDpT_; _Z8LastProcPPN3Dpr5Field15EncountResult_oEPNS0_12FieldEncount13ENC_FLD_SPA_oEP10MethodInfo; _Z9GetFormNoP14FieldManager_oiiiP10MethodInfo; _ZNSt7__cxx1112basic_stringIcSt11char_traitsIcESaIcEE10_M_disposeEv; _Z30Pml_Local_Random_GetValue_HookPN3Pml8PokePara13InitialSpec_oE; _Z38Pml_Local_RandomGenerator_GetRand_HookPN3Pml5Local17RandomGenerator_oEPNS_8PokePara13InitialSpec_oE; _Z14socket_log_fmtIJEEvRKNSt7__cxx1112basic_stringIcSt11char_traitsIcESaIcEEEDpT_; _Z14socket_log_fmtIJiEEvRKNSt7__cxx1112basic_stringIcSt11char_traitsIcESaIcEEEDpT_; _Z14socket_log_fmtIJjEEvRKNSt7__cxx1112basic_stringIcSt11char_traitsIcESaIcEEEDpT_; _Z14socket_log_fmtIJPN3Dpr2UI7UIBag_oEEEvRKNSt7__cxx1112basic_stringIcSt11char_traitsIcESaIcEEEDpT_; _Z16isValidRareCandyjPN3Dpr2UI7UIBag_oE; _Z16ItemWork_SubItemiiP10MethodInfo; _ZNSt7__cxx1112basic_stringIcSt11char_traitsIcESaIcEE10_M_disposeEv; _Z29checkForbidChangeEscapeCommonPN3Dpr6Battle5Logic12BTL_CLIENT_oEPNS1_15BTL_POKEPARAM_oEPhPtP10MethodInfo; _Z14socket_log_fmtIJEEvRKNSt7__cxx1112basic_stringIcSt11char_traitsIcESaIcEEEDpT_; _Z14socket_log_fmtIJiEEvRKNSt7__cxx1112basic_stringIcSt11char_traitsIcESaIcEEEDpT_; _Z14socket_log_fmtIJmEEvRKNSt7__cxx1112basic_stringIcSt11char_traitsIcESaIcEEEDpT_; _Z14socket_log_fmtIJMN3Dpr11UnderGround15UgPokeLottery_oEFPN3Pml8PokePara9CoreParamEihP10MethodInfoEEEvRKNSt7__cxx1112basic_stringIcSt11char_traitsIcESaIcEEEDpT_; _Z14socket_log_fmtIJMN3Pml8PokePara9CoreParamEFvtPNS1_28CoreParam_FormChangeResult_oEP10MethodInfoEEEvRKNSt7__cxx1112basic_stringIcSt11char_traitsIcESaIcEEEDpT_; _Z17GetEnablePokes_b0PvS_P10MethodInfo; _Z41Dpr_UnderGround_UgPokeLottery_LotteryPokePN3Dpr11UnderGround15UgPokeLottery_oEPN6System5ArrayIPN11XLSXContent22UgEncount_Sheettable_oEEEP57System_Collections_Generic_List_UgPokeLottery_PokeSlot__ohP10MethodInfo; _Z44Dpr_UnderGround_UgPokeLottery_GetEnablePokesPN3Dpr11UnderGround15UgPokeLottery_oEiiP10MethodInfo; _ZNSt7__cxx1112basic_stringIcSt11char_traitsIcESaIcEE10_M_disposeEv; _Z13string_formatIJiEENSt7__cxx1112basic_stringIcSt11char_traitsIcESaIcEEERKS5_DpT_; _Z14socket_log_fmtIJiEEvRKNSt7__cxx1112basic_stringIcSt11char_traitsIcESaIcEEEDpT_; _Z26PlayerWork_get_rivalPokeNoP10MethodInfo; _Z28PlayerWork_get_defaultPokeNoP10MethodInfo; _Z28PlayerWork_get_rivalPokeTypeP10MethodInfo; _Z28PlayerWork_get_supportPokeNoP10MethodInfo; _ZN10PlayerWork15get_rivalPokeNoEP10MethodInfo; _ZN10PlayerWork17get_defaultPokeNoEP10MethodInfo; _ZN10PlayerWork17get_rivalPokeTypeEP10MethodInfo; _ZN10PlayerWork17get_supportPokeNoEP10MethodInfo; _ZNSt7__cxx1112basic_stringIcSt11char_traitsIcESaIcEE10_M_disposeEv; _Z28SwarmForm_getAssetBundleNamePvS_P26TairyouHasseiPokeManager_o; _Z10ADD_AsOne0P10MethodInfo; _Z10ADD_AsOne1P10MethodInfo; _Z11ADD_IceFaceP10MethodInfo; _Z11ADD_ZenModeP10MethodInfo; _Z12ADD_DisguiseP10MethodInfo; _Z13ADD_GrimNeighP10MethodInfo; _Z13ADD_QuickDrawP10MethodInfo; _Z13ADD_SchoolingP10MethodInfo; _Z13MultitypeTypej; _Z13RKSSystemTypej; _Z14ADD_BattleBondP10MethodInfo; _Z14ADD_DragonsMawP10MethodInfo; _Z14ADD_TransistorP10MethodInfo; _Z14HandlerMessagePPN3Dpr6Battle5Logic30EventFactor_EventHandlerArgs_oEhb; _Z15ADD_GulpMissileP10MethodInfo; _Z15ADD_ShieldsDownP10MethodInfo; _Z15HighestMultiplehh; _Z16ADD_HungerSwitchP10MethodInfo; _Z16ADD_StanceChangeP10MethodInfo; _Z16HandlerRankResetPPN3Dpr6Battle5Logic30EventFactor_EventHandlerArgs_oEh; _Z17ADD_ChillingNeighP10MethodInfo; _Z17HandlerFormChangePPN3Dpr6Battle5Logic30EventFactor_EventHandlerArgs_oEhhbbb; _Z17HandlerRankEffectPPN3Dpr6Battle5Logic30EventFactor_EventHandlerArgs_oEhhihbbb; _Z18ADD_PowerConstructP10MethodInfo; _Z19ADD_CuriousMedicineP10MethodInfo; _Z23HandlerIceFaceGetFormIDhh; _Z23HandlerZenModeGetFormIDPN3Dpr6Battle5Logic15BTL_POKEPARAM_oE; _Z23SetAbilityFunctionTablePN6System5ArrayIN3Dpr6Battle5Logic7Handler29Tokusei_GET_FUNC_TABLE_ELEM_oEEEPjiPFvvE; _Z24HandlerDisguiseGetFormIDhh; _Z24HandlerForecastGetFormIDPPN3Dpr6Battle5Logic30EventFactor_EventHandlerArgs_oEh; _Z24Tokusei_system_array_newPvj; _Z25CreateAbilityEventHandlertPFvvE; _Z25HandlerForecastAtkprocEndPPN3Dpr6Battle5Logic30EventFactor_EventHandlerArgs_oEhP10MethodInfo; _Z25HandlerForecastGetFormID0PPN3Dpr6Battle5Logic30EventFactor_EventHandlerArgs_oEh; _Z25HandlerSchoolingGetFormIDPN3Dpr6Battle5Logic15BTL_POKEPARAM_oE; _Z26HandlerBattleBondGetFormIDhh; _Z26HandlerBattleBondWazaPowerPPN3Dpr6Battle5Logic30EventFactor_EventHandlerArgs_oEhP10MethodInfo; _Z26HandlerFlowerGiftGetFormIDPPN3Dpr6Battle5Logic30EventFactor_EventHandlerArgs_oEh; _Z26HandlerIceFaceMemberInCompPPN3Dpr6Battle5Logic30EventFactor_EventHandlerArgs_oEhP10MethodInfo; _Z26HandlerIceFaceWazaDmgProc2PPN3Dpr6Battle5Logic30EventFactor_EventHandlerArgs_oEhP10MethodInfo; _Z26HandlerZenModeMemberInCompPPN3Dpr6Battle5Logic30EventFactor_EventHandlerArgs_oEhP10MethodInfo; _Z27HandlerDisguiseWazaDmgProc2PPN3Dpr6Battle5Logic30EventFactor_EventHandlerArgs_oEhP10MethodInfo; _Z27HandlerFlowerGiftAtkprocEndPPN3Dpr6Battle5Logic30EventFactor_EventHandlerArgs_oEhP10MethodInfo; _Z27HandlerFlowerGiftGetFormID0PPN3Dpr6Battle5Logic30EventFactor_EventHandlerArgs_oEh; _Z27HandlerForecastMemberInCompPPN3Dpr6Battle5Logic30EventFactor_EventHandlerArgs_oEhP10MethodInfo; _Z27HandlerGulpMissileGetFormIDhh; _Z27HandlerShieldsDownGetFormIDPN3Dpr6Battle5Logic15BTL_POKEPARAM_oE; _Z27HandlerZenModeTurncheckDonePPN3Dpr6Battle5Logic30EventFactor_EventHandlerArgs_oEhP10MethodInfo; _Z28HandlerForecastNotifyAirlockPPN3Dpr6Battle5Logic30EventFactor_EventHandlerArgs_oEhP10MethodInfo; _Z28HandlerGulpMissileWazaseqEndPPN3Dpr6Battle5Logic30EventFactor_EventHandlerArgs_oEhP10MethodInfo; _Z28HandlerHungerSwitchGetFormIDhh; _Z28HandlerSchoolingMemberInCompPPN3Dpr6Battle5Logic30EventFactor_EventHandlerArgs_oEhP10MethodInfo; _Z29HandlerBattleBondWazaHitCountPPN3Dpr6Battle5Logic30EventFactor_EventHandlerArgs_oEhP10MethodInfo; _Z29HandlerFlowerGiftMemberInCompPPN3Dpr6Battle5Logic30EventFactor_EventHandlerArgs_oEhP10MethodInfo; _Z29HandlerForecastTokuseiDisablePPN3Dpr6Battle5Logic30EventFactor_EventHandlerArgs_oEhP10MethodInfo; _Z29HandlerIceFaceWazaDmgReactionPPN3Dpr6Battle5Logic30EventFactor_EventHandlerArgs_oEhP10MethodInfo; _Z29HandlerQuickDrawTurncheckDonePPN3Dpr6Battle5Logic30EventFactor_EventHandlerArgs_oEhP10MethodInfo; _Z29HandlerSchoolingTurncheckDonePPN3Dpr6Battle5Logic30EventFactor_EventHandlerArgs_oEhP10MethodInfo; _Z30HandlerDisguiseWazaDmgReactionPPN3Dpr6Battle5Logic30EventFactor_EventHandlerArgs_oEhP10MethodInfo; _Z30HandlerDragonsMawAttackerPowerPPN3Dpr6Battle5Logic30EventFactor_EventHandlerArgs_oEhP10MethodInfo; _Z30HandlerFlowerGiftNotifyAirlockPPN3Dpr6Battle5Logic30EventFactor_EventHandlerArgs_oEhP10MethodInfo; _Z30HandlerPowerConstructGetFormIDhh; _Z30HandlerShieldsDownCheckInemuriPPN3Dpr6Battle5Logic30EventFactor_EventHandlerArgs_oEhP10MethodInfo; _Z30HandlerShieldsDownMemberInCompPPN3Dpr6Battle5Logic30EventFactor_EventHandlerArgs_oEhP10MethodInfo; _Z30HandlerTransistorAttackerPowerPPN3Dpr6Battle5Logic30EventFactor_EventHandlerArgs_oEhP10MethodInfo; _Z31HandlerFlowerGiftTokuseiDisablePPN3Dpr6Battle5Logic30EventFactor_EventHandlerArgs_oEhP10MethodInfo; _Z31HandlerQuickDrawCheckSpPriorityPPN3Dpr6Battle5Logic30EventFactor_EventHandlerArgs_oEhP10MethodInfo; _Z31HandlerShieldsDownTurncheckDonePPN3Dpr6Battle5Logic30EventFactor_EventHandlerArgs_oEhP10MethodInfo; _Z31Pml_PokePara_CoreParam_GetType1PN3Pml8PokePara9CoreParamEP10MethodInfo; _Z31Pml_PokePara_CoreParam_GetType2PN3Pml8PokePara9CoreParamEP10MethodInfo; _Z32HandlerHungerSwitchTurncheckDonePPN3Dpr6Battle5Logic30EventFactor_EventHandlerArgs_oEhP10MethodInfo; _Z32HandlerIceFaceWeatherChangeAfterPPN3Dpr6Battle5Logic30EventFactor_EventHandlerArgs_oEhP10MethodInfo; _Z32HandlerShieldsDownGetAddSickFailPN3Dpr6Battle5Logic15BTL_POKEPARAM_oE; _Z33HandlerCuriousMedicineMemberInEvoPPN3Dpr6Battle5Logic30EventFactor_EventHandlerArgs_oEhP10MethodInfo; _Z33HandlerForecastChangeTokuseiAfterPPN3Dpr6Battle5Logic30EventFactor_EventHandlerArgs_oEhP10MethodInfo; _Z33HandlerGulpMissileWazaDmgReactionPPN3Dpr6Battle5Logic30EventFactor_EventHandlerArgs_oEhP10MethodInfo; _Z33HandlerPowerConstructMemberInCompPPN3Dpr6Battle5Logic30EventFactor_EventHandlerArgs_oEhP10MethodInfo; _Z33HandlerStanceChangeWazaCallDecidePPN3Dpr6Battle5Logic30EventFactor_EventHandlerArgs_oEhP10MethodInfo; _Z34HandlerForecastChangeTokuseiBeforePPN3Dpr6Battle5Logic30EventFactor_EventHandlerArgs_oEhP10MethodInfo; _Z34HandlerPowerConstructTurncheckDonePPN3Dpr6Battle5Logic30EventFactor_EventHandlerArgs_oEhP10MethodInfo; _Z34HandlerShieldsDownAddSickCheckFailPPN3Dpr6Battle5Logic30EventFactor_EventHandlerArgs_oEhP10MethodInfo; _Z35HandlerFlowerGiftChangeTokuseiAfterPPN3Dpr6Battle5Logic30EventFactor_EventHandlerArgs_oEhP10MethodInfo; _Z36HandlerFlowerGiftChangeTokuseiBeforePPN3Dpr6Battle5Logic30EventFactor_EventHandlerArgs_oEhP10MethodInfo; _Z36HandlerGrimNeighDamageprocEndHitRealPPN3Dpr6Battle5Logic30EventFactor_EventHandlerArgs_oEhP10MethodInfo; _Z37HandlerBattleBondDamageprocEndHitRealPPN3Dpr6Battle5Logic30EventFactor_EventHandlerArgs_oEhP10MethodInfo; _Z40HandlerChillingNeighDamageprocEndHitRealPPN3Dpr6Battle5Logic30EventFactor_EventHandlerArgs_oEhP10MethodInfo; _Z58Dpr_Battle_Logic_Section_CheckNotEffect_Guard_check_MamoruPN3Dpr6Battle5Logic30Section_CheckNotEffect_Guard_oEPNS1_15BTL_POKEPARAM_oEPNS1_11WazaParam_oEPNS1_11DmgAffRec_oEPNS1_9PokeSet_oEP10MethodInfo; _Z7GetTypePN3Pml8PokePara9CoreParamEi; _Z11SkipTMBreakPN3Dpr2UI5UIBag15DisplayClass130EP10MethodInfo; _Z43Dpr_UI_UIMsgWindowController_CloseMsgWindowPN3Dpr2UI21UIMsgWindowControllerEP10MethodInfo; _Z14socket_log_fmtIJEEvRKNSt7__cxx1112basic_stringIcSt11char_traitsIcESaIcEEEDpT_; _Z14socket_log_fmtIJiEEvRKNSt7__cxx1112basic_stringIcSt11char_traitsIcESaIcEEEDpT_; _Z14socket_log_fmtIJMN3Pml8PokePara8AccessorEFihP10MethodInfoEEEvRKNSt7__cxx1112basic_stringIcSt11char_traitsIcESaIcEEEDpT_; _Z14socket_log_fmtIJPN11XLSXContent11ItemTable_oEEEvRKNSt7__cxx1112basic_stringIcSt11char_traitsIcESaIcEEEDpT_; _Z14socket_log_fmtIJPN3Pml8PmlUse_oEEEvRKNSt7__cxx1112basic_stringIcSt11char_traitsIcESaIcEEEDpT_; _Z14socket_log_fmtIJPN3Pml8PokePara8AccessorEEEvRKNSt7__cxx1112basic_stringIcSt11char_traitsIcESaIcEEEDpT_; _Z14socket_log_fmtIJPN6System11Collections7Generic17HashSet_WazaNo__oEEEvRKNSt7__cxx1112basic_stringIcSt11char_traitsIcESaIcEEEDpT_; _Z14socket_log_fmtIJPN6System5ArrayIPN11XLSXContent9ItemTable18SheetWazaMachine_oEEEEEvRKNSt7__cxx1112basic_stringIcSt11char_traitsIcESaIcEEEDpT_; _Z14socket_log_fmtIJtEEvRKNSt7__cxx1112basic_stringIcSt11char_traitsIcESaIcEEEDpT_; _Z31CoreParam_CollectRemindableWazaPN3Pml8PokePara9CoreParamEP10MethodInfo; _ZN3Pml8PokePara9CoreParam21CollectRemindableWazaEP10MethodInfo; _ZNSt7__cxx1112basic_stringIcSt11char_traitsIcESaIcEE10_M_disposeEv; _Z10socket_logPKc; _Z13tryInitSocketv; _Z16socket_read_charPc; _Z21socket_log_initializev; _Z13GetBadgeCountv; _Z14copyMethodInfoP10MethodInfoPFvvE; _Z16system_array_newPvj; _Z18CreateEventHandlertP10MethodInfoPFvvE; _Z20system_load_typeinfoPv; _ZN6System6String11CtorCharPtrEPt; _ZN6System6String12CreateStringEPKc; _Z7penaltyP16SystemTimeWork_o; _Z8expSharePN3Dpr6Battle5Logic10MainModuleE; _Z9affectionPN3Dpr6Battle5Logic10MainModuleEPNS1_15BTL_POKEPARAM_oEP10MethodInfo;
    local: *;
};
